target datalayout = "e-m:e-p270:32:32-p271:32:32-p272:64:64-i64:64-i128:128-f80:128-n8:16:32:64-S128"
target triple = "x86_64-pc-linux-gnu"

%struct.re_pattern_buffer = type { ptr, i32, i32, i32, i32, i32, i32, i32, i32, i32, i32, i32, i32, i32, ptr, ptr, ptr, ptr, i32, i32, i32, i32, i64, i64, i32, ptr, ptr, [256 x i8], ptr, ptr, i64, i64, i64, ptr }

; Function Attrs: alwaysinline nounwind
define internal ptr @memcpy.inline(ptr noalias nonnull %0, ptr noalias nonnull %1, i64 %2) #7 {
  %4 = alloca ptr, align 8
  %5 = alloca ptr, align 8
  %6 = alloca i64, align 8
  store ptr %0, ptr %4, align 8, !tbaa !36
  store ptr %1, ptr %5, align 8, !tbaa !36
  store i64 %2, ptr %6, align 8, !tbaa !14
  %7 = load ptr, ptr %4, align 8, !tbaa !36
  %8 = load ptr, ptr %5, align 8, !tbaa !36
  %9 = load i64, ptr %6, align 8, !tbaa !14
  %10 = load ptr, ptr %4, align 8, !tbaa !36
  %11 = call i64 @llvm.objectsize.i64.p0(ptr %10, i1 false, i1 true, i1 false)
  %12 = call ptr @__memcpy_chk(ptr noundef %7, ptr noundef %8, i64 noundef %9, i64 noundef %11) #11
  ret ptr %12
}

; Function Attrs: nounwind sspstrong uwtable
define internal i32 @add_mem_num(ptr noundef %0, i32 noundef %1) #0 {
  %3 = alloca i32, align 4
  %4 = alloca ptr, align 8
  %5 = alloca i32, align 4
  %6 = alloca i16, align 2
  %7 = alloca i32, align 4
  %8 = alloca ptr, align 8
  %9 = alloca i32, align 4
  store ptr %0, ptr %4, align 8, !tbaa !21
  store i32 %1, ptr %5, align 4, !tbaa !7
  call void @llvm.lifetime.start.p0(i64 2, ptr %6) #11
  %10 = load i32, ptr %5, align 4, !tbaa !7
  %11 = trunc i32 %10 to i16
  store i16 %11, ptr %6, align 2, !tbaa !283
  br label %12

12:                                               ; preds = %2
  call void @llvm.lifetime.start.p0(i64 4, ptr %7) #11
  %13 = load ptr, ptr %4, align 8, !tbaa !21
  %14 = getelementptr inbounds nuw %struct.re_pattern_buffer, ptr %13, i32 0, i32 1
  %15 = load i32, ptr %14, align 8, !tbaa !55
  %16 = add i32 %15, 2
  store i32 %16, ptr %7, align 4, !tbaa !7
  %17 = load ptr, ptr %4, align 8, !tbaa !21
  %18 = getelementptr inbounds nuw %struct.re_pattern_buffer, ptr %17, i32 0, i32 2
  %19 = load i32, ptr %18, align 4, !tbaa !41
  %20 = load i32, ptr %7, align 4, !tbaa !7
  %21 = icmp ult i32 %19, %20
  br i1 %21, label %22, label %56

22:                                               ; preds = %12
  br label %23

23:                                               ; preds = %22
  call void @llvm.lifetime.start.p0(i64 8, ptr %8) #11
  br label %24

24:                                               ; preds = %29, %23
  %25 = load ptr, ptr %4, align 8, !tbaa !21
  %26 = getelementptr inbounds nuw %struct.re_pattern_buffer, ptr %25, i32 0, i32 2
  %27 = load i32, ptr %26, align 4, !tbaa !41
  %28 = mul i32 %27, 2
  store i32 %28, ptr %26, align 4, !tbaa !41
  br label %29

29:                                               ; preds = %24
  %30 = load ptr, ptr %4, align 8, !tbaa !21
  %31 = getelementptr inbounds nuw %struct.re_pattern_buffer, ptr %30, i32 0, i32 2
  %32 = load i32, ptr %31, align 4, !tbaa !41
  %33 = load i32, ptr %7, align 4, !tbaa !7
  %34 = icmp ult i32 %32, %33
  br i1 %34, label %24, label %35, !llvm.loop !301

35:                                               ; preds = %29
  %36 = load ptr, ptr %4, align 8, !tbaa !21
  %37 = getelementptr inbounds nuw %struct.re_pattern_buffer, ptr %36, i32 0, i32 0
  %38 = load ptr, ptr %37, align 8, !tbaa !23
  %39 = load ptr, ptr %4, align 8, !tbaa !21
  %40 = getelementptr inbounds nuw %struct.re_pattern_buffer, ptr %39, i32 0, i32 2
  %41 = load i32, ptr %40, align 4, !tbaa !41
  %42 = zext i32 %41 to i64
  %43 = call ptr @realloc(ptr noundef %38, i64 noundef %42) #12
  store ptr %43, ptr %8, align 8, !tbaa !35
  %44 = load ptr, ptr %8, align 8, !tbaa !35
  %45 = icmp eq ptr %44, null
  br i1 %45, label %46, label %47

46:                                               ; preds = %35
  store i32 -5, ptr %3, align 4
  store i32 1, ptr %9, align 4
  br label %51

47:                                               ; preds = %35
  %48 = load ptr, ptr %8, align 8, !tbaa !35
  %49 = load ptr, ptr %4, align 8, !tbaa !21
  %50 = getelementptr inbounds nuw %struct.re_pattern_buffer, ptr %49, i32 0, i32 0
  store ptr %48, ptr %50, align 8, !tbaa !23
  store i32 0, ptr %9, align 4
  br label %51

51:                                               ; preds = %47, %46
  call void @llvm.lifetime.end.p0(i64 8, ptr %8) #11
  %52 = load i32, ptr %9, align 4
  switch i32 %52, label %76 [
    i32 0, label %53
  ]

53:                                               ; preds = %51
  br label %54

54:                                               ; preds = %53
  br label %55

55:                                               ; preds = %54
  br label %56

56:                                               ; preds = %55, %12
  %57 = load ptr, ptr %4, align 8, !tbaa !21
  %58 = getelementptr inbounds nuw %struct.re_pattern_buffer, ptr %57, i32 0, i32 0
  %59 = load ptr, ptr %58, align 8, !tbaa !23
  %60 = load ptr, ptr %4, align 8, !tbaa !21
  %61 = getelementptr inbounds nuw %struct.re_pattern_buffer, ptr %60, i32 0, i32 1
  %62 = load i32, ptr %61, align 8, !tbaa !55
  %63 = zext i32 %62 to i64
  %64 = getelementptr i8, ptr %59, i64 %63
  %65 = call ptr @memcpy.inline(ptr noundef %64, ptr noundef %6, i64 noundef 2) #11
  %66 = load ptr, ptr %4, align 8, !tbaa !21
  %67 = getelementptr inbounds nuw %struct.re_pattern_buffer, ptr %66, i32 0, i32 1
  %68 = load i32, ptr %67, align 8, !tbaa !55
  %69 = load i32, ptr %7, align 4, !tbaa !7
  %70 = icmp ult i32 %68, %69
  br i1 %70, label %71, label %75

71:                                               ; preds = %56
  %72 = load i32, ptr %7, align 4, !tbaa !7
  %73 = load ptr, ptr %4, align 8, !tbaa !21
  %74 = getelementptr inbounds nuw %struct.re_pattern_buffer, ptr %73, i32 0, i32 1
  store i32 %72, ptr %74, align 8, !tbaa !55
  br label %75

75:                                               ; preds = %71, %56
  store i32 0, ptr %9, align 4
  br label %76

76:                                               ; preds = %75, %51
  call void @llvm.lifetime.end.p0(i64 4, ptr %7) #11
  %77 = load i32, ptr %9, align 4
  switch i32 %77, label %81 [
    i32 0, label %78
  ]

78:                                               ; preds = %76
  br label %79

79:                                               ; preds = %78
  br label %80

80:                                               ; preds = %79
  store i32 0, ptr %3, align 4
  store i32 1, ptr %9, align 4
  br label %81

81:                                               ; preds = %80, %76
  call void @llvm.lifetime.end.p0(i64 2, ptr %6) #11
  %82 = load i32, ptr %3, align 4
  ret i32 %82
}