; Function Attrs: nounwind sspstrong uwtable
define internal fastcc range(i32 -5, 1) i32 @add_mem_num(ptr noundef captures(none) %0, i32 noundef %1) unnamed_addr #4 {
  %3 = trunc i32 %1 to i16
  %4 = getelementptr inbounds nuw i8, ptr %0, i64 8
  %5 = load i32, ptr %4, align 8, !tbaa !115
  %6 = add i32 %5, 2
  %7 = getelementptr inbounds nuw i8, ptr %0, i64 12
  %8 = load i32, ptr %7, align 4, !tbaa !37
  %9 = icmp ult i32 %8, %6
  br i1 %9, label %.preheader, label %._crit_edge

._crit_edge:                                      ; preds = %2
  %.pre = load ptr, ptr %0, align 8, !tbaa !17
  br label %18

.preheader:                                       ; preds = %2, %.preheader
  %10 = phi i32 [ %11, %.preheader ], [ %8, %2 ]
  %11 = shl i32 %10, 1
  %12 = icmp ult i32 %11, %6
  br i1 %12, label %.preheader, label %13, !llvm.loop !199

13:                                               ; preds = %.preheader
  store i32 %11, ptr %7, align 4, !tbaa !37
  %14 = load ptr, ptr %0, align 8, !tbaa !17
  %15 = zext i32 %11 to i64
  %16 = tail call ptr @realloc(ptr noundef %14, i64 noundef %15) #21
  %.not = icmp eq ptr %16, null
  br i1 %.not, label %.critedge, label %17

17:                                               ; preds = %13
  store ptr %16, ptr %0, align 8, !tbaa !17
  %.pre29 = load i32, ptr %4, align 8, !tbaa !115
  br label %18

18:                                               ; preds = %._crit_edge, %17
  %19 = phi i32 [ %5, %._crit_edge ], [ %.pre29, %17 ]
  %20 = phi ptr [ %.pre, %._crit_edge ], [ %16, %17 ]
  %21 = zext i32 %19 to i64
  %22 = getelementptr i8, ptr %20, i64 %21
  store i16 %3, ptr %22, align 1
  %23 = load i32, ptr %4, align 8, !tbaa !115
  %24 = icmp ult i32 %23, %6
  br i1 %24, label %25, label %.critedge

25:                                               ; preds = %18
  store i32 %6, ptr %4, align 8, !tbaa !115
  br label %.critedge

.critedge:                                        ; preds = %18, %25, %13
  %26 = phi i32 [ -5, %13 ], [ 0, %25 ], [ 0, %18 ]
  ret i32 %26
}